target datalayout = "e-m:e-p270:32:32-p271:32:32-p272:64:64-i64:64-i128:128-f80:128-n8:16:32:64-S128"
target triple = "x86_64-pc-linux-gnu"

%class.symbol = type { ptr }
%"class.spacer::unsat_core_plugin" = type { ptr, ptr, ptr }
%"class.spacer::unsat_core_learner" = type { ptr, ptr, ptr, %class.ptr_vector, %class.ast_mark, %class.ref_vector }
%class.ptr_vector = type { %class.vector }
%class.vector = type { ptr }
%class.ast_mark = type { ptr, %class.obj_mark, %class.obj_mark.0 }
%class.obj_mark = type { [8 x i8], %class.bit_vector }
%class.bit_vector = type { i32, i32, ptr }
%class.obj_mark.0 = type { [8 x i8], %class.bit_vector }
%class.ref_vector = type { %class.ref_vector_core }
%class.ref_vector_core = type { %class.ref_manager_wrapper, %class.ptr_vector.1 }
%class.ref_manager_wrapper = type { ptr }
%class.ptr_vector.1 = type { %class.vector.2 }
%class.vector.2 = type { ptr }
%"class.ast_manager::proof_parents" = type { ptr, ptr }
%class.svector.22 = type { %class.vector.23 }
%class.vector.23 = type { ptr }
%class.app = type { %class.expr, ptr, i32, %struct.app_flags, [0 x ptr] }
%class.expr = type { %class.ast }
%class.ast = type { i32, i32, i32, i32 }
%struct.app_flags = type <{ i16, i8, i8 }>
%class.obj_ref.59 = type { ptr, ptr }
%class.ast_manager = type { %class.reslimit, %class.small_object_allocator, %class.family_manager, %class.parray_manager, %class.dependency_manager, %class.parray_manager.15, %class.ptr_vector.18, i32, i8, %class.ast_table, %class.obj_map, %class.id_gen, %class.id_gen, ptr, ptr, ptr, ptr, ptr, i32, i8, [3 x i8], %class.u_map, ptr, i8, i8, ptr, %class.symbol, %class.obj_map.26, ptr }
%class.reslimit = type { %"struct.std::atomic", i8, i64, i64, %class.svector, %class.ptr_vector.4 }
%"struct.std::atomic" = type { %"struct.std::__atomic_base" }
%"struct.std::__atomic_base" = type { i32 }
%class.svector = type { %class.vector.3 }
%class.vector.3 = type { ptr }
%class.ptr_vector.4 = type { %class.vector.5 }
%class.vector.5 = type { ptr }
%class.small_object_allocator = type { [32 x ptr], [32 x ptr], i64 }
%class.family_manager = type { i32, %class.symbol_table, %class.svector.9 }
%class.symbol_table = type { %class.core_hashtable, %class.vector.6, %class.svector.7 }
%class.core_hashtable = type <{ ptr, i32, i32, i32, [4 x i8] }>
%class.vector.6 = type { ptr }
%class.svector.7 = type { %class.vector.8 }
%class.vector.8 = type { ptr }
%class.svector.9 = type { %class.vector.10 }
%class.vector.10 = type { ptr }
%class.parray_manager = type { ptr, ptr, %class.ptr_vector.11, %class.ptr_vector.11 }
%class.ptr_vector.11 = type { %class.vector.12 }
%class.vector.12 = type { ptr }
%class.dependency_manager = type { ptr, ptr, %class.ptr_vector.13 }
%class.ptr_vector.13 = type { %class.vector.14 }
%class.vector.14 = type { ptr }
%class.parray_manager.15 = type { ptr, ptr, %class.ptr_vector.16, %class.ptr_vector.16 }
%class.ptr_vector.16 = type { %class.vector.17 }
%class.vector.17 = type { ptr }
%class.ptr_vector.18 = type { %class.vector.19 }
%class.vector.19 = type { ptr }
%class.ast_table = type { %class.chashtable }
%class.chashtable = type { ptr, i32, i32, i32, i32, i32, i32, i32, ptr, ptr, ptr }
%class.obj_map = type { %class.core_hashtable.20 }
%class.core_hashtable.20 = type <{ ptr, i32, i32, i32, [4 x i8] }>
%class.id_gen = type { i32, %class.svector.22 }
%class.u_map = type { %class.map }
%class.map = type { %class.table2map }
%class.table2map = type { %class.core_hashtable.24 }
%class.core_hashtable.24 = type <{ ptr, i32, i32, i32, [4 x i8] }>
%class.obj_map.26 = type { %class.core_hashtable.27 }
%class.core_hashtable.27 = type <{ ptr, i32, i32, i32, [4 x i8] }>
%"class.spacer::iuc_proof" = type { ptr, %class.obj_ref.59, %class.ast_mark, %class.ast_mark, %class.ast_mark, %class.obj_hashtable, %class.obj_hashtable.88 }
%class.obj_hashtable = type { %class.core_hashtable.base.87, [4 x i8] }
%class.core_hashtable.base.87 = type <{ ptr, i32, i32, i32 }>
%class.obj_hashtable.88 = type { %class.core_hashtable.base.92, [4 x i8] }
%class.core_hashtable.base.92 = type <{ ptr, i32, i32, i32 }>

; Function Attrs: mustprogress nounwind uwtable
define linkonce_odr hidden noundef ptr @_ZNK3app7get_argEj(ptr noundef nonnull align 8 dereferenceable(32) %0, i32 noundef %1) #5 comdat align 2 {
  %3 = alloca ptr, align 8
  %4 = alloca i32, align 4
  store ptr %0, ptr %3, align 8, !tbaa !37
  store i32 %1, ptr %4, align 4, !tbaa !48
  %5 = load ptr, ptr %3, align 8
  %6 = getelementptr inbounds nuw %class.app, ptr %5, i32 0, i32 4
  %7 = load i32, ptr %4, align 4, !tbaa !48
  %8 = zext i32 %7 to i64
  %9 = getelementptr inbounds nuw [0 x ptr], ptr %6, i64 0, i64 %8
  %10 = load ptr, ptr %9, align 8, !tbaa !51
  ret ptr %10
}

; Function Attrs: mustprogress uwtable
define linkonce_odr hidden noundef zeroext i1 @_ZN6spacer9iuc_proof11is_b_markedEP3app(ptr noundef nonnull align 8 dereferenceable(240) %0, ptr noundef %1) #4 comdat align 2 {
  %3 = alloca ptr, align 8
  %4 = alloca ptr, align 8
  store ptr %0, ptr %3, align 8, !tbaa !304
  store ptr %1, ptr %4, align 8, !tbaa !37
  %5 = load ptr, ptr %3, align 8
  %6 = getelementptr inbounds nuw %"class.spacer::iuc_proof", ptr %5, i32 0, i32 3
  %7 = load ptr, ptr %4, align 8, !tbaa !37
  %8 = call noundef zeroext i1 @_ZNK8ast_mark9is_markedEP3ast(ptr noundef nonnull align 8 dereferenceable(56) %6, ptr noundef %7)
  ret i1 %8
}

; Function Attrs: mustprogress uwtable
define linkonce_odr hidden noundef zeroext i1 @_ZNK11ast_manager8has_factEPK3app(ptr noundef nonnull align 8 dereferenceable(976) %0, ptr noundef %1) #4 comdat align 2 {
  %3 = alloca ptr, align 8
  %4 = alloca ptr, align 8
  %5 = alloca i32, align 4
  store ptr %0, ptr %3, align 8, !tbaa !12
  store ptr %1, ptr %4, align 8, !tbaa !37
  %6 = load ptr, ptr %3, align 8
  call void @llvm.lifetime.start.p0(i64 4, ptr %5) #3
  %7 = load ptr, ptr %4, align 8, !tbaa !37
  %8 = call noundef i32 @_ZNK3app12get_num_argsEv(ptr noundef nonnull align 8 dereferenceable(32) %7)
  store i32 %8, ptr %5, align 4, !tbaa !48
  %9 = load i32, ptr %5, align 4, !tbaa !48
  %10 = icmp ugt i32 %9, 0
  br i1 %10, label %11, label %20

11:                                               ; preds = %2
  %12 = load ptr, ptr %4, align 8, !tbaa !37
  %13 = load i32, ptr %5, align 4, !tbaa !48
  %14 = sub i32 %13, 1
  %15 = call noundef ptr @_ZNK3app7get_argEj(ptr noundef nonnull align 8 dereferenceable(32) %12, i32 noundef %14)
  %16 = call noundef ptr @_ZNK4expr8get_sortEv(ptr noundef nonnull align 4 dereferenceable(16) %15)
  %17 = getelementptr inbounds nuw %class.ast_manager, ptr %6, i32 0, i32 14
  %18 = load ptr, ptr %17, align 8, !tbaa !247
  %19 = icmp ne ptr %16, %18
  br label %20

20:                                               ; preds = %11, %2
  %21 = phi i1 [ false, %2 ], [ %19, %11 ]
  call void @llvm.lifetime.end.p0(i64 4, ptr %5) #3
  ret i1 %21
}

; Function Attrs: mustprogress nounwind uwtable
define linkonce_odr hidden noundef i32 @_ZNK3app12get_num_argsEv(ptr noundef nonnull align 8 dereferenceable(32) %0) #5 comdat align 2 {
  %2 = alloca ptr, align 8
  store ptr %0, ptr %2, align 8, !tbaa !37
  %3 = load ptr, ptr %2, align 8
  %4 = getelementptr inbounds nuw %class.app, ptr %3, i32 0, i32 2
  %5 = load i32, ptr %4, align 8, !tbaa !104
  ret i32 %5
}

; Function Attrs: mustprogress nounwind uwtable
define linkonce_odr hidden noundef ptr @_ZNK3app5beginEv(ptr noundef nonnull align 8 dereferenceable(32) %0) #5 comdat align 2 {
  %2 = alloca ptr, align 8
  store ptr %0, ptr %2, align 8, !tbaa !37
  %3 = load ptr, ptr %2, align 8
  %4 = getelementptr inbounds nuw %class.app, ptr %3, i32 0, i32 4
  %5 = getelementptr inbounds [0 x ptr], ptr %4, i64 0, i64 0
  ret ptr %5
}

; Function Attrs: mustprogress nounwind uwtable
define linkonce_odr hidden void @_ZN11ast_manager13proof_parentsC2ERS_P3app(ptr noundef nonnull align 8 dereferenceable(16) %0, ptr noundef nonnull align 8 dereferenceable(976) %1, ptr noundef %2) unnamed_addr #5 comdat align 2 {
  %4 = alloca ptr, align 8
  %5 = alloca ptr, align 8
  %6 = alloca ptr, align 8
  store ptr %0, ptr %4, align 8, !tbaa !41
  store ptr %1, ptr %5, align 8, !tbaa !12
  store ptr %2, ptr %6, align 8, !tbaa !37
  %7 = load ptr, ptr %4, align 8
  %8 = getelementptr inbounds nuw %"class.ast_manager::proof_parents", ptr %7, i32 0, i32 0
  %9 = load ptr, ptr %5, align 8, !tbaa !12
  store ptr %9, ptr %8, align 8, !tbaa !12
  %10 = getelementptr inbounds nuw %"class.ast_manager::proof_parents", ptr %7, i32 0, i32 1
  %11 = load ptr, ptr %6, align 8, !tbaa !37
  store ptr %11, ptr %10, align 8, !tbaa !46
  ret void
}

; Function Attrs: mustprogress uwtable
define linkonce_odr hidden noundef zeroext i1 @_ZN6spacer18unsat_core_learner9is_b_openEP3app(ptr noundef nonnull align 8 dereferenceable(104) %0, ptr noundef %1) #4 comdat align 2 {
  %3 = alloca ptr, align 8
  %4 = alloca ptr, align 8
  store ptr %0, ptr %3, align 8, !tbaa !8
  store ptr %1, ptr %4, align 8, !tbaa !37
  %5 = load ptr, ptr %3, align 8
  %6 = getelementptr inbounds nuw %"class.spacer::unsat_core_learner", ptr %5, i32 0, i32 2
  %7 = load ptr, ptr %6, align 8, !tbaa !50
  %8 = load ptr, ptr %4, align 8, !tbaa !37
  %9 = call noundef zeroext i1 @_ZN6spacer9iuc_proof11is_b_markedEP3app(ptr noundef nonnull align 8 dereferenceable(240) %7, ptr noundef %8)
  br i1 %9, label %10, label %14

10:                                               ; preds = %2
  %11 = load ptr, ptr %4, align 8, !tbaa !37
  %12 = call noundef zeroext i1 @_ZN6spacer18unsat_core_learner9is_closedEP3app(ptr noundef nonnull align 8 dereferenceable(104) %5, ptr noundef %11)
  %13 = xor i1 %12, true
  br label %14

14:                                               ; preds = %10, %2
  %15 = phi i1 [ false, %2 ], [ %13, %10 ]
  ret i1 %15
}

; Function Attrs: mustprogress uwtable
define linkonce_odr hidden noundef ptr @_ZNK11ast_manager13proof_parents3endEv(ptr noundef nonnull align 8 dereferenceable(16) %0) #4 comdat align 2 {
  %2 = alloca ptr, align 8
  %3 = alloca i32, align 4
  store ptr %0, ptr %2, align 8, !tbaa !41
  %4 = load ptr, ptr %2, align 8
  call void @llvm.lifetime.start.p0(i64 4, ptr %3) #3
  %5 = getelementptr inbounds nuw %"class.ast_manager::proof_parents", ptr %4, i32 0, i32 1
  %6 = load ptr, ptr %5, align 8, !tbaa !46
  %7 = call noundef i32 @_ZNK3app12get_num_argsEv(ptr noundef nonnull align 8 dereferenceable(32) %6)
  store i32 %7, ptr %3, align 4, !tbaa !48
  %8 = call noundef ptr @_ZNK11ast_manager13proof_parents5beginEv(ptr noundef nonnull align 8 dereferenceable(16) %4)
  %9 = getelementptr inbounds nuw %"class.ast_manager::proof_parents", ptr %4, i32 0, i32 0
  %10 = load ptr, ptr %9, align 8, !tbaa !49
  %11 = getelementptr inbounds nuw %"class.ast_manager::proof_parents", ptr %4, i32 0, i32 1
  %12 = load ptr, ptr %11, align 8, !tbaa !46
  %13 = call noundef zeroext i1 @_ZNK11ast_manager8has_factEPK3app(ptr noundef nonnull align 8 dereferenceable(976) %10, ptr noundef %12)
  br i1 %13, label %14, label %17

14:                                               ; preds = %1
  %15 = load i32, ptr %3, align 4, !tbaa !48
  %16 = sub i32 %15, 1
  br label %19

17:                                               ; preds = %1
  %18 = load i32, ptr %3, align 4, !tbaa !48
  br label %19

19:                                               ; preds = %17, %14
  %20 = phi i32 [ %16, %14 ], [ %18, %17 ]
  %21 = zext i32 %20 to i64
  %22 = getelementptr inbounds nuw ptr, ptr %8, i64 %21
  call void @llvm.lifetime.end.p0(i64 4, ptr %3) #3
  ret ptr %22
}

; Function Attrs: mustprogress uwtable
define linkonce_odr hidden noundef ptr @_ZNK11ast_manager13proof_parents5beginEv(ptr noundef nonnull align 8 dereferenceable(16) %0) #4 comdat align 2 {
  %2 = alloca ptr, align 8
  store ptr %0, ptr %2, align 8, !tbaa !41
  %3 = load ptr, ptr %2, align 8
  %4 = getelementptr inbounds nuw %"class.ast_manager::proof_parents", ptr %3, i32 0, i32 1
  %5 = load ptr, ptr %4, align 8, !tbaa !46
  %6 = call noundef ptr @_ZNK3app5beginEv(ptr noundef nonnull align 8 dereferenceable(32) %5)
  ret ptr %6
}

; Function Attrs: mustprogress uwtable
define linkonce_odr hidden { ptr, ptr } @_ZN11ast_manager11get_parentsEP3app(ptr noundef nonnull align 8 dereferenceable(976) %0, ptr noundef %1) #4 comdat align 2 {
  %3 = alloca %"class.ast_manager::proof_parents", align 8
  %4 = alloca ptr, align 8
  %5 = alloca ptr, align 8
  store ptr %0, ptr %4, align 8, !tbaa !12
  store ptr %1, ptr %5, align 8, !tbaa !37
  %6 = load ptr, ptr %4, align 8
  %7 = load ptr, ptr %5, align 8, !tbaa !37
  call void @_ZN11ast_manager13proof_parentsC2ERS_P3app(ptr noundef nonnull align 8 dereferenceable(16) %3, ptr noundef nonnull align 8 dereferenceable(976) %6, ptr noundef %7)
  %8 = load { ptr, ptr }, ptr %3, align 8
  ret { ptr, ptr } %8
}

; Function Attrs: mustprogress uwtable
define hidden void @_ZN6spacer23unsat_core_plugin_lemma20compute_partial_coreEP3app(ptr noundef nonnull align 8 dereferenceable(24) %0, ptr noundef %1) unnamed_addr #4 align 2 {
  %3 = alloca ptr, align 8
  %4 = alloca ptr, align 8
  %5 = alloca ptr, align 8
  %6 = alloca %"class.ast_manager::proof_parents", align 8
  %7 = alloca ptr, align 8
  %8 = alloca ptr, align 8
  %9 = alloca ptr, align 8
  store ptr %0, ptr %3, align 8, !tbaa !35
  store ptr %1, ptr %4, align 8, !tbaa !37
  %10 = load ptr, ptr %3, align 8
  call void @llvm.lifetime.start.p0(i64 8, ptr %5) #3
  call void @llvm.lifetime.start.p0(i64 16, ptr %6) #3
  %11 = getelementptr inbounds nuw %"class.spacer::unsat_core_plugin", ptr %10, i32 0, i32 1
  %12 = load ptr, ptr %11, align 8, !tbaa !39
  %13 = load ptr, ptr %4, align 8, !tbaa !37
  %14 = call { ptr, ptr } @_ZN11ast_manager11get_parentsEP3app(ptr noundef nonnull align 8 dereferenceable(976) %12, ptr noundef %13)
  %15 = getelementptr inbounds nuw { ptr, ptr }, ptr %6, i32 0, i32 0
  %16 = extractvalue { ptr, ptr } %14, 0
  store ptr %16, ptr %15, align 8
  %17 = getelementptr inbounds nuw { ptr, ptr }, ptr %6, i32 0, i32 1
  %18 = extractvalue { ptr, ptr } %14, 1
  store ptr %18, ptr %17, align 8
  store ptr %6, ptr %5, align 8, !tbaa !41
  call void @llvm.lifetime.start.p0(i64 8, ptr %7) #3
  %19 = load ptr, ptr %5, align 8, !tbaa !41
  %20 = call noundef ptr @_ZNK11ast_manager13proof_parents5beginEv(ptr noundef nonnull align 8 dereferenceable(16) %19)
  store ptr %20, ptr %7, align 8, !tbaa !43
  call void @llvm.lifetime.start.p0(i64 8, ptr %8) #3
  %21 = load ptr, ptr %5, align 8, !tbaa !41
  %22 = call noundef ptr @_ZNK11ast_manager13proof_parents3endEv(ptr noundef nonnull align 8 dereferenceable(16) %21)
  store ptr %22, ptr %8, align 8, !tbaa !43
  br label %23

23:                                               ; preds = %38, %2
  %24 = load ptr, ptr %7, align 8, !tbaa !43
  %25 = load ptr, ptr %8, align 8, !tbaa !43
  %26 = icmp ne ptr %24, %25
  br i1 %26, label %28, label %27

27:                                               ; preds = %23
  call void @llvm.lifetime.end.p0(i64 8, ptr %8) #3
  call void @llvm.lifetime.end.p0(i64 8, ptr %7) #3
  call void @llvm.lifetime.end.p0(i64 16, ptr %6) #3
  call void @llvm.lifetime.end.p0(i64 8, ptr %5) #3
  br label %41

28:                                               ; preds = %23
  call void @llvm.lifetime.start.p0(i64 8, ptr %9) #3
  %29 = load ptr, ptr %7, align 8, !tbaa !43
  %30 = load ptr, ptr %29, align 8, !tbaa !37
  store ptr %30, ptr %9, align 8, !tbaa !37
  %31 = getelementptr inbounds nuw %"class.spacer::unsat_core_plugin", ptr %10, i32 0, i32 2
  %32 = load ptr, ptr %31, align 8, !tbaa !45
  %33 = load ptr, ptr %9, align 8, !tbaa !37
  %34 = call noundef zeroext i1 @_ZN6spacer18unsat_core_learner9is_b_openEP3app(ptr noundef nonnull align 8 dereferenceable(104) %32, ptr noundef %33)
  br i1 %34, label %35, label %37

35:                                               ; preds = %28
  %36 = load ptr, ptr %9, align 8, !tbaa !37
  call void @_ZNK6spacer23unsat_core_plugin_lemma24add_lowest_split_to_coreEP3app(ptr noundef nonnull align 8 dereferenceable(24) %10, ptr noundef %36)
  br label %37

37:                                               ; preds = %35, %28
  call void @llvm.lifetime.end.p0(i64 8, ptr %9) #3
  br label %38

38:                                               ; preds = %37
  %39 = load ptr, ptr %7, align 8, !tbaa !43
  %40 = getelementptr inbounds nuw ptr, ptr %39, i32 1
  store ptr %40, ptr %7, align 8, !tbaa !43
  br label %23

41:                                               ; preds = %27
  %42 = getelementptr inbounds nuw %"class.spacer::unsat_core_plugin", ptr %10, i32 0, i32 2
  %43 = load ptr, ptr %42, align 8, !tbaa !45
  %44 = load ptr, ptr %4, align 8, !tbaa !37
  call void @_ZN6spacer18unsat_core_learner10set_closedEP3appb(ptr noundef nonnull align 8 dereferenceable(104) %43, ptr noundef %44, i1 noundef zeroext true)
  ret void
}