; Function Attrs: mustprogress uwtable
define hidden void @_ZN6spacer23unsat_core_plugin_lemma20compute_partial_coreEP3app(ptr noundef nonnull readonly align 8 captures(none) dereferenceable(24) %0, ptr noundef %1) unnamed_addr #4 align 2 {
  %.ptr = getelementptr inbounds nuw i8, ptr %1, i64 32
  %3 = getelementptr inbounds nuw i8, ptr %1, i64 24
  %4 = load i32, ptr %3, align 8, !tbaa !33
  %.not.i.i = icmp eq i32 %4, 0
  br i1 %.not.i.i, label %_ZNK11ast_manager13proof_parents3endEv.exit, label %5

5:                                                ; preds = %2
  %6 = getelementptr inbounds nuw i8, ptr %0, i64 8
  %7 = load ptr, ptr %6, align 8, !tbaa !39
  %8 = add i32 %4, -1
  %9 = zext i32 %8 to i64
  %10 = getelementptr inbounds nuw [0 x ptr], ptr %.ptr, i64 0, i64 %9
  %11 = load ptr, ptr %10, align 8, !tbaa !41
  %12 = tail call noundef ptr @_ZNK4expr8get_sortEv(ptr noundef nonnull align 4 dereferenceable(16) %11)
  %13 = getelementptr inbounds nuw i8, ptr %7, i64 848
  %14 = load ptr, ptr %13, align 8, !tbaa !43
  %15 = icmp ne ptr %12, %14
  %16 = sext i1 %15 to i32
  br label %_ZNK11ast_manager13proof_parents3endEv.exit

_ZNK11ast_manager13proof_parents3endEv.exit:      ; preds = %2, %5
  %17 = phi i32 [ 0, %2 ], [ %16, %5 ]
  %18 = add i32 %17, %4
  %19 = zext i32 %18 to i64
  %.idx = shl nuw nsw i64 %19, 3
  %20 = getelementptr inbounds nuw i8, ptr %1, i64 %.idx
  %.ptr14 = getelementptr inbounds nuw i8, ptr %20, i64 32
  %.not12 = icmp eq i32 %18, 0
  br i1 %.not12, label %._crit_edge, label %.lr.ph

.lr.ph:                                           ; preds = %_ZNK11ast_manager13proof_parents3endEv.exit
  %21 = getelementptr inbounds nuw i8, ptr %0, i64 16
  br label %24

._crit_edge:                                      ; preds = %_ZN6spacer18unsat_core_learner9is_b_openEP3app.exit.thread, %_ZNK11ast_manager13proof_parents3endEv.exit
  %22 = getelementptr inbounds nuw i8, ptr %0, i64 16
  %23 = load ptr, ptr %22, align 8, !tbaa !108
  tail call void @_ZN6spacer18unsat_core_learner10set_closedEP3appb(ptr noundef nonnull align 8 dereferenceable(104) %23, ptr noundef %1, i1 noundef zeroext true)
  ret void

24:                                               ; preds = %.lr.ph, %_ZN6spacer18unsat_core_learner9is_b_openEP3app.exit.thread
  %.013 = phi ptr [ %.ptr, %.lr.ph ], [ %33, %_ZN6spacer18unsat_core_learner9is_b_openEP3app.exit.thread ]
  %25 = load ptr, ptr %.013, align 8, !tbaa !109
  %26 = load ptr, ptr %21, align 8, !tbaa !108
  %27 = getelementptr inbounds nuw i8, ptr %26, i64 16
  %28 = load ptr, ptr %27, align 8, !tbaa !110
  %29 = getelementptr inbounds nuw i8, ptr %28, i64 80
  %30 = tail call noundef zeroext i1 @_ZNK8ast_mark9is_markedEP3ast(ptr noundef nonnull align 8 dereferenceable(56) %29, ptr noundef %25)
  br i1 %30, label %_ZN6spacer18unsat_core_learner9is_b_openEP3app.exit, label %_ZN6spacer18unsat_core_learner9is_b_openEP3app.exit.thread

_ZN6spacer18unsat_core_learner9is_b_openEP3app.exit: ; preds = %24
  %31 = tail call noundef zeroext i1 @_ZN6spacer18unsat_core_learner9is_closedEP3app(ptr noundef nonnull align 8 dereferenceable(104) %26, ptr noundef %25)
  br i1 %31, label %_ZN6spacer18unsat_core_learner9is_b_openEP3app.exit.thread, label %32

32:                                               ; preds = %_ZN6spacer18unsat_core_learner9is_b_openEP3app.exit
  tail call void @_ZNK6spacer23unsat_core_plugin_lemma24add_lowest_split_to_coreEP3app(ptr noundef nonnull align 8 dereferenceable(24) %0, ptr noundef %25)
  br label %_ZN6spacer18unsat_core_learner9is_b_openEP3app.exit.thread

_ZN6spacer18unsat_core_learner9is_b_openEP3app.exit.thread: ; preds = %24, %32, %_ZN6spacer18unsat_core_learner9is_b_openEP3app.exit
  %33 = getelementptr inbounds nuw i8, ptr %.013, i64 8
  %.not = icmp eq ptr %33, %.ptr14
  br i1 %.not, label %._crit_edge, label %24
}